; Function Attrs: nounwind uwtable
define void @col_append_str(ptr noundef readonly %0, i32 noundef %1, ptr noundef %2) local_unnamed_addr #0 {
  %4 = icmp eq ptr %0, null
  br i1 %4, label %col_do_append_str.exit, label %5

5:                                                ; preds = %3
  %6 = icmp eq i32 %1, -1
  %.phi.trans.insert.i = getelementptr inbounds nuw i8, ptr %0, i64 56
  %.pre.i = load i32, ptr %.phi.trans.insert.i, align 8
  br i1 %6, label %col_get_writable.exit, label %7

7:                                                ; preds = %5
  %8 = icmp eq i32 %.pre.i, 0
  br i1 %8, label %col_do_append_str.exit, label %9

9:                                                ; preds = %7
  %10 = getelementptr inbounds nuw i8, ptr %0, i64 24
  %11 = load ptr, ptr %10, align 8
  %12 = sext i32 %1 to i64
  %13 = getelementptr i32, ptr %11, i64 %12
  %14 = load i32, ptr %13, align 4
  %15 = icmp sgt i32 %14, -1
  br i1 %15, label %.preheader.i, label %col_do_append_str.exit

.preheader.i:                                     ; preds = %9
  %16 = getelementptr inbounds nuw i8, ptr %0, i64 32
  %17 = load ptr, ptr %16, align 8
  %18 = getelementptr i32, ptr %17, i64 %12
  %19 = load i32, ptr %18, align 4
  %.not22.i = icmp sgt i32 %14, %19
  br i1 %.not22.i, label %col_do_append_str.exit, label %.lr.ph.i

.lr.ph.i:                                         ; preds = %.preheader.i
  %20 = getelementptr inbounds nuw i8, ptr %0, i64 16
  %21 = load ptr, ptr %20, align 8
  br label %24

22:                                               ; preds = %24
  %23 = add i32 %.01723.i, 1
  %.not.i = icmp sgt i32 %23, %19
  br i1 %.not.i, label %col_do_append_str.exit, label %24, !llvm.loop !9

24:                                               ; preds = %22, %.lr.ph.i
  %.01723.i = phi i32 [ %14, %.lr.ph.i ], [ %23, %22 ]
  %25 = sext i32 %.01723.i to i64
  %26 = getelementptr %struct.col_item_t, ptr %21, i64 %25
  %27 = getelementptr inbounds nuw i8, ptr %26, i64 8
  %28 = load ptr, ptr %27, align 8
  %29 = getelementptr i32, ptr %28, i64 %12
  %30 = load i32, ptr %29, align 4
  %.not21.i = icmp eq i32 %30, 0
  br i1 %.not21.i, label %22, label %31

31:                                               ; preds = %24
  %32 = getelementptr inbounds nuw i8, ptr %26, i64 76
  %33 = load i32, ptr %32, align 4
  br label %col_get_writable.exit

col_get_writable.exit:                            ; preds = %5, %31
  %.0.i = phi i32 [ %33, %31 ], [ %.pre.i, %5 ]
  %.not = icmp eq i32 %.0.i, 0
  br i1 %.not, label %col_do_append_str.exit, label %34

34:                                               ; preds = %col_get_writable.exit
  %35 = getelementptr inbounds nuw i8, ptr %0, i64 24
  %36 = load ptr, ptr %35, align 8
  %37 = sext i32 %1 to i64
  %38 = getelementptr i32, ptr %36, i64 %37
  %39 = load i32, ptr %38, align 4
  %40 = icmp sgt i32 %39, -1
  br i1 %40, label %41, label %col_do_append_str.exit

41:                                               ; preds = %34
  %42 = icmp eq i32 %1, 25
  %..i = select i1 %42, i64 4096, i64 2048
  %43 = getelementptr inbounds nuw i8, ptr %0, i64 32
  %44 = load ptr, ptr %43, align 8
  %45 = getelementptr i32, ptr %44, i64 %37
  %46 = load i32, ptr %45, align 4
  %.not33.i = icmp sgt i32 %39, %46
  br i1 %.not33.i, label %col_do_append_str.exit, label %.lr.ph.i6

.lr.ph.i6:                                        ; preds = %41
  %47 = getelementptr inbounds nuw i8, ptr %0, i64 16
  br label %.lr.ph.split.us.i

.lr.ph.split.us.i:                                ; preds = %67, %.lr.ph.i6
  %48 = phi ptr [ %68, %67 ], [ %44, %.lr.ph.i6 ]
  %.034.us.i = phi i32 [ %69, %67 ], [ %39, %.lr.ph.i6 ]
  %49 = load ptr, ptr %47, align 8
  %50 = sext i32 %.034.us.i to i64
  %51 = getelementptr %struct.col_item_t, ptr %49, i64 %50
  %52 = getelementptr inbounds nuw i8, ptr %51, i64 8
  %53 = load ptr, ptr %52, align 8
  %54 = getelementptr i32, ptr %53, i64 %37
  %55 = load i32, ptr %54, align 4
  %.not31.us.i = icmp eq i32 %55, 0
  br i1 %.not31.us.i, label %67, label %56

56:                                               ; preds = %.lr.ph.split.us.i
  %57 = getelementptr inbounds nuw i8, ptr %51, i64 56
  %58 = load ptr, ptr %57, align 8
  %59 = getelementptr inbounds nuw i8, ptr %51, i64 64
  %60 = load ptr, ptr %59, align 8
  %.not32.us.i = icmp eq ptr %58, %60
  br i1 %.not32.us.i, label %64, label %61

61:                                               ; preds = %56
  %62 = tail call i64 @g_strlcpy(ptr noundef %60, ptr noundef %58, i64 noundef %..i) #16
  %63 = load ptr, ptr %59, align 8
  store ptr %63, ptr %57, align 8
  br label %64

64:                                               ; preds = %61, %56
  %65 = phi ptr [ %63, %61 ], [ %60, %56 ]
  %66 = tail call i64 @ws_label_strcat(ptr noundef %65, i64 noundef %..i, ptr noundef %2, i32 noundef 0) #16
  %.pre39.i = load ptr, ptr %43, align 8
  br label %67

67:                                               ; preds = %64, %.lr.ph.split.us.i
  %68 = phi ptr [ %.pre39.i, %64 ], [ %48, %.lr.ph.split.us.i ]
  %69 = add i32 %.034.us.i, 1
  %70 = getelementptr i32, ptr %68, i64 %37
  %71 = load i32, ptr %70, align 4
  %.not.us.i = icmp sgt i32 %69, %71
  br i1 %.not.us.i, label %col_do_append_str.exit, label %.lr.ph.split.us.i, !llvm.loop !27

col_do_append_str.exit:                           ; preds = %22, %67, %7, %.preheader.i, %9, %3, %41, %col_get_writable.exit, %34
  ret void
}